; Function Attrs: mustprogress uwtable
define void @_ZN6casadi11GetNonzeros6createERKNS_8SparsityERKNS_2MXERKNS_5SliceE(ptr dead_on_unwind noalias writable sret(%"class.casadi::MX") align 8 %0, ptr noundef nonnull align 8 dereferenceable(8) %1, ptr noundef nonnull align 8 dereferenceable(8) %2, ptr nocapture noundef nonnull readonly align 8 dereferenceable(24) %3) local_unnamed_addr #3 align 2 personality ptr @__gxx_personality_v0 {
  %5 = tail call noundef nonnull align 8 dereferenceable(8) ptr @_ZNK6casadi2MX8sparsityEv(ptr noundef nonnull align 8 dereferenceable(8) %2)
  %6 = tail call noundef zeroext i1 @_ZNK6casadi8Sparsity8is_equalERKS0_(ptr noundef nonnull align 8 dereferenceable(8) %1, ptr noundef nonnull align 8 dereferenceable(8) %5)
  %7 = load i64, ptr %3, align 8
  %8 = icmp eq i64 %7, 0
  %or.cond = select i1 %6, i1 %8, i1 false
  %9 = getelementptr inbounds i8, ptr %3, i64 16
  %10 = load i64, ptr %9, align 8
  %11 = icmp eq i64 %10, 1
  %or.cond14 = select i1 %or.cond, i1 %11, i1 false
  br i1 %or.cond14, label %12, label %19

12:                                               ; preds = %4
  %13 = getelementptr inbounds i8, ptr %3, i64 8
  %14 = load i64, ptr %13, align 8
  %15 = tail call noundef nonnull align 8 dereferenceable(8) ptr @_ZNK6casadi2MX8sparsityEv(ptr noundef nonnull align 8 dereferenceable(8) %2)
  %16 = tail call noundef i64 @_ZNK6casadi8Sparsity3nnzEv(ptr noundef nonnull align 8 dereferenceable(8) %15)
  %17 = icmp eq i64 %14, %16
  br i1 %17, label %18, label %19

18:                                               ; preds = %12
  tail call void @_ZN6casadi12SharedObjectC2ERKS0_(ptr noundef nonnull align 8 dereferenceable(8) %0, ptr noundef nonnull align 8 dereferenceable(8) %2)
  br label %28

19:                                               ; preds = %12, %4
  %20 = tail call noalias noundef nonnull dereferenceable(88) ptr @_Znwm(i64 noundef 88) #21
  invoke void @_ZN6casadi6MXNodeC2Ev(ptr noundef nonnull align 8 dereferenceable(64) %20)
          to label %.noexc unwind label %26

.noexc:                                           ; preds = %19
  store ptr getelementptr inbounds ({ [109 x ptr] }, ptr @_ZTVN6casadi11GetNonzerosE, i64 0, i32 0, i64 2), ptr %20, align 8
  invoke void @_ZN6casadi6MXNode12set_sparsityERKNS_8SparsityE(ptr noundef nonnull align 8 dereferenceable(64) %20, ptr noundef nonnull align 8 dereferenceable(8) %1)
          to label %21 unwind label %22

21:                                               ; preds = %.noexc
  invoke void @_ZN6casadi6MXNode7set_depERKNS_2MXE(ptr noundef nonnull align 8 dereferenceable(64) %20, ptr noundef nonnull align 8 dereferenceable(8) %2)
          to label %24 unwind label %22

22:                                               ; preds = %21, %.noexc
  %23 = landingpad { ptr, i32 }
          cleanup
  tail call void @_ZN6casadi6MXNodeD2Ev(ptr noundef nonnull align 8 dereferenceable(64) %20) #22
  br label %.body

24:                                               ; preds = %21
  store ptr getelementptr inbounds ({ [109 x ptr] }, ptr @_ZTVN6casadi16GetNonzerosSliceE, i64 0, i32 0, i64 2), ptr %20, align 8
  %25 = getelementptr inbounds i8, ptr %20, i64 64
  tail call void @llvm.memcpy.p0.p0.i64(ptr noundef nonnull align 8 dereferenceable(24) %25, ptr noundef nonnull align 8 dereferenceable(24) %3, i64 24, i1 false)
  tail call void @_ZN6casadi2MX6createEPNS_6MXNodeE(ptr dead_on_unwind writable sret(%"class.casadi::MX") align 8 %0, ptr noundef nonnull %20)
  br label %28

26:                                               ; preds = %19
  %27 = landingpad { ptr, i32 }
          cleanup
  br label %.body

.body:                                            ; preds = %22, %26
  %eh.lpad-body = phi { ptr, i32 } [ %27, %26 ], [ %23, %22 ]
  tail call void @_ZdlPv(ptr noundef nonnull %20) #23
  resume { ptr, i32 } %eh.lpad-body

28:                                               ; preds = %24, %18
  ret void
}